target datalayout = "e-m:e-p270:32:32-p271:32:32-p272:64:64-i64:64-i128:128-f80:128-n8:16:32:64-S128"
target triple = "x86_64-pc-linux-gnu"

%struct.If_Set_t_ = type { i16, i16, ptr, ptr }
%struct.If_Cut_t_ = type <{ float, float, float, float, i32, i32, i32, i64, [0 x i32] }>

@If_CutVerifyCuts.Count = internal global i32 0, align 4
@.str.1 = private unnamed_addr constant [2 x i8] c"{\00", align 1
@.str.2 = private unnamed_addr constant [6 x i8] c" %s%d\00", align 1
@.str.3 = private unnamed_addr constant [2 x i8] c"!\00", align 1
@.str.4 = private unnamed_addr constant [1 x i8] zeroinitializer, align 1
@.str.5 = private unnamed_addr constant [4 x i8] c" }\0A\00", align 1

; Function Attrs: inlinehint nounwind uwtable
define internal i32 @If_CutLeafBit(ptr noundef %0, i32 noundef %1) #2 {
  %3 = alloca ptr, align 8
  %4 = alloca i32, align 4
  store ptr %0, ptr %3, align 8, !tbaa !15
  store i32 %1, ptr %4, align 4, !tbaa !8
  %5 = load ptr, ptr %3, align 8, !tbaa !15
  %6 = getelementptr inbounds nuw %struct.If_Cut_t_, ptr %5, i32 0, i32 5
  %7 = load i32, ptr %6, align 4, !tbaa !98
  %8 = load i32, ptr %4, align 4, !tbaa !8
  %9 = ashr i32 %7, %8
  %10 = and i32 %9, 1
  ret i32 %10
}

; Function Attrs: nounwind uwtable
define void @If_CutPrint(ptr noundef %0) #0 {
  %2 = alloca ptr, align 8
  %3 = alloca i32, align 4
  store ptr %0, ptr %2, align 8, !tbaa !15
  call void @llvm.lifetime.start.p0(i64 4, ptr %3) #9
  call void (i32, ptr, ...) @Abc_Print(i32 noundef 1, ptr noundef @.str.1)
  store i32 0, ptr %3, align 4, !tbaa !8
  br label %4

4:                                                ; preds = %25, %1
  %5 = load i32, ptr %3, align 4, !tbaa !8
  %6 = load ptr, ptr %2, align 8, !tbaa !15
  %7 = getelementptr inbounds nuw %struct.If_Cut_t_, ptr %6, i32 0, i32 7
  %8 = load i64, ptr %7, align 4
  %9 = lshr i64 %8, 24
  %10 = and i64 %9, 255
  %11 = trunc i64 %10 to i32
  %12 = icmp ult i32 %5, %11
  br i1 %12, label %13, label %28

13:                                               ; preds = %4
  %14 = load ptr, ptr %2, align 8, !tbaa !15
  %15 = load i32, ptr %3, align 4, !tbaa !8
  %16 = call i32 @If_CutLeafBit(ptr noundef %14, i32 noundef %15)
  %17 = icmp ne i32 %16, 0
  %18 = select i1 %17, ptr @.str.3, ptr @.str.4
  %19 = load ptr, ptr %2, align 8, !tbaa !15
  %20 = getelementptr inbounds nuw %struct.If_Cut_t_, ptr %19, i32 0, i32 8
  %21 = load i32, ptr %3, align 4, !tbaa !8
  %22 = zext i32 %21 to i64
  %23 = getelementptr inbounds nuw [0 x i32], ptr %20, i64 0, i64 %22
  %24 = load i32, ptr %23, align 4, !tbaa !8
  call void (i32, ptr, ...) @Abc_Print(i32 noundef 1, ptr noundef @.str.2, ptr noundef %18, i32 noundef %24)
  br label %25

25:                                               ; preds = %13
  %26 = load i32, ptr %3, align 4, !tbaa !8
  %27 = add i32 %26, 1
  store i32 %27, ptr %3, align 4, !tbaa !8
  br label %4, !llvm.loop !27

28:                                               ; preds = %4
  call void (i32, ptr, ...) @Abc_Print(i32 noundef 1, ptr noundef @.str.5)
  call void @llvm.lifetime.end.p0(i64 4, ptr %3) #9
  ret void
}

; Function Attrs: inlinehint nounwind uwtable
define internal i32 @If_CutVerifyCut(ptr noundef %0, ptr noundef %1) #2 {
  %3 = alloca i32, align 4
  %4 = alloca ptr, align 8
  %5 = alloca ptr, align 8
  %6 = alloca i32, align 4
  %7 = alloca i32, align 4
  %8 = alloca ptr, align 8
  %9 = alloca ptr, align 8
  %10 = alloca i32, align 4
  %11 = alloca i32, align 4
  %12 = alloca i32, align 4
  store ptr %0, ptr %4, align 8, !tbaa !15
  store ptr %1, ptr %5, align 8, !tbaa !15
  call void @llvm.lifetime.start.p0(i64 4, ptr %6) #9
  %13 = load ptr, ptr %4, align 8, !tbaa !15
  %14 = getelementptr inbounds nuw %struct.If_Cut_t_, ptr %13, i32 0, i32 7
  %15 = load i64, ptr %14, align 4
  %16 = lshr i64 %15, 24
  %17 = and i64 %16, 255
  %18 = trunc i64 %17 to i32
  store i32 %18, ptr %6, align 4, !tbaa !8
  call void @llvm.lifetime.start.p0(i64 4, ptr %7) #9
  %19 = load ptr, ptr %5, align 8, !tbaa !15
  %20 = getelementptr inbounds nuw %struct.If_Cut_t_, ptr %19, i32 0, i32 7
  %21 = load i64, ptr %20, align 4
  %22 = lshr i64 %21, 24
  %23 = and i64 %22, 255
  %24 = trunc i64 %23 to i32
  store i32 %24, ptr %7, align 4, !tbaa !8
  call void @llvm.lifetime.start.p0(i64 8, ptr %8) #9
  %25 = load ptr, ptr %4, align 8, !tbaa !15
  %26 = getelementptr inbounds nuw %struct.If_Cut_t_, ptr %25, i32 0, i32 8
  %27 = getelementptr inbounds [0 x i32], ptr %26, i64 0, i64 0
  store ptr %27, ptr %8, align 8, !tbaa !23
  call void @llvm.lifetime.start.p0(i64 8, ptr %9) #9
  %28 = load ptr, ptr %5, align 8, !tbaa !15
  %29 = getelementptr inbounds nuw %struct.If_Cut_t_, ptr %28, i32 0, i32 8
  %30 = getelementptr inbounds [0 x i32], ptr %29, i64 0, i64 0
  store ptr %30, ptr %9, align 8, !tbaa !23
  call void @llvm.lifetime.start.p0(i64 4, ptr %10) #9
  call void @llvm.lifetime.start.p0(i64 4, ptr %11) #9
  store i32 0, ptr %10, align 4, !tbaa !8
  br label %31

31:                                               ; preds = %63, %2
  %32 = load i32, ptr %10, align 4, !tbaa !8
  %33 = load i32, ptr %7, align 4, !tbaa !8
  %34 = icmp slt i32 %32, %33
  br i1 %34, label %35, label %66

35:                                               ; preds = %31
  store i32 0, ptr %11, align 4, !tbaa !8
  br label %36

36:                                               ; preds = %54, %35
  %37 = load i32, ptr %11, align 4, !tbaa !8
  %38 = load i32, ptr %6, align 4, !tbaa !8
  %39 = icmp slt i32 %37, %38
  br i1 %39, label %40, label %57

40:                                               ; preds = %36
  %41 = load ptr, ptr %9, align 8, !tbaa !23
  %42 = load i32, ptr %10, align 4, !tbaa !8
  %43 = sext i32 %42 to i64
  %44 = getelementptr inbounds i32, ptr %41, i64 %43
  %45 = load i32, ptr %44, align 4, !tbaa !8
  %46 = load ptr, ptr %8, align 8, !tbaa !23
  %47 = load i32, ptr %11, align 4, !tbaa !8
  %48 = sext i32 %47 to i64
  %49 = getelementptr inbounds i32, ptr %46, i64 %48
  %50 = load i32, ptr %49, align 4, !tbaa !8
  %51 = icmp eq i32 %45, %50
  br i1 %51, label %52, label %53

52:                                               ; preds = %40
  br label %57

53:                                               ; preds = %40
  br label %54

54:                                               ; preds = %53
  %55 = load i32, ptr %11, align 4, !tbaa !8
  %56 = add nsw i32 %55, 1
  store i32 %56, ptr %11, align 4, !tbaa !8
  br label %36, !llvm.loop !25

57:                                               ; preds = %52, %36
  %58 = load i32, ptr %11, align 4, !tbaa !8
  %59 = load i32, ptr %6, align 4, !tbaa !8
  %60 = icmp eq i32 %58, %59
  br i1 %60, label %61, label %62

61:                                               ; preds = %57
  store i32 0, ptr %3, align 4
  store i32 1, ptr %12, align 4
  br label %67

62:                                               ; preds = %57
  br label %63

63:                                               ; preds = %62
  %64 = load i32, ptr %10, align 4, !tbaa !8
  %65 = add nsw i32 %64, 1
  store i32 %65, ptr %10, align 4, !tbaa !8
  br label %31, !llvm.loop !26

66:                                               ; preds = %31
  store i32 1, ptr %3, align 4
  store i32 1, ptr %12, align 4
  br label %67

67:                                               ; preds = %66, %61
  call void @llvm.lifetime.end.p0(i64 4, ptr %11) #9
  call void @llvm.lifetime.end.p0(i64 4, ptr %10) #9
  call void @llvm.lifetime.end.p0(i64 8, ptr %9) #9
  call void @llvm.lifetime.end.p0(i64 8, ptr %8) #9
  call void @llvm.lifetime.end.p0(i64 4, ptr %7) #9
  call void @llvm.lifetime.end.p0(i64 4, ptr %6) #9
  %68 = load i32, ptr %3, align 4
  ret i32 %68
}

; Function Attrs: nounwind uwtable
define i32 @If_CutVerifyCuts(ptr noundef %0, i32 noundef %1) #0 {
  %3 = alloca ptr, align 8
  %4 = alloca i32, align 4
  %5 = alloca ptr, align 8
  %6 = alloca ptr, align 8
  %7 = alloca i32, align 4
  %8 = alloca i32, align 4
  %9 = alloca i32, align 4
  %10 = alloca i32, align 4
  %11 = alloca i32, align 4
  store ptr %0, ptr %3, align 8, !tbaa !3
  store i32 %1, ptr %4, align 4, !tbaa !8
  call void @llvm.lifetime.start.p0(i64 8, ptr %5) #9
  call void @llvm.lifetime.start.p0(i64 8, ptr %6) #9
  call void @llvm.lifetime.start.p0(i64 4, ptr %7) #9
  call void @llvm.lifetime.start.p0(i64 4, ptr %8) #9
  call void @llvm.lifetime.start.p0(i64 4, ptr %9) #9
  call void @llvm.lifetime.start.p0(i64 4, ptr %10) #9
  call void @llvm.lifetime.start.p0(i64 4, ptr %11) #9
  store i32 0, ptr %7, align 4, !tbaa !8
  br label %12

12:                                               ; preds = %111, %2
  %13 = load i32, ptr %7, align 4, !tbaa !8
  %14 = load ptr, ptr %3, align 8, !tbaa !3
  %15 = getelementptr inbounds nuw %struct.If_Set_t_, ptr %14, i32 0, i32 1
  %16 = load i16, ptr %15, align 2, !tbaa !10
  %17 = sext i16 %16 to i32
  %18 = icmp slt i32 %13, %17
  br i1 %18, label %19, label %114

19:                                               ; preds = %12
  %20 = load ptr, ptr %3, align 8, !tbaa !3
  %21 = getelementptr inbounds nuw %struct.If_Set_t_, ptr %20, i32 0, i32 3
  %22 = load ptr, ptr %21, align 8, !tbaa !14
  %23 = load i32, ptr %7, align 4, !tbaa !8
  %24 = sext i32 %23 to i64
  %25 = getelementptr inbounds ptr, ptr %22, i64 %24
  %26 = load ptr, ptr %25, align 8, !tbaa !15
  store ptr %26, ptr %5, align 8, !tbaa !15
  %27 = load i32, ptr %4, align 4, !tbaa !8
  %28 = icmp ne i32 %27, 0
  br i1 %28, label %29, label %44

29:                                               ; preds = %19
  store i32 1, ptr %9, align 4, !tbaa !8
  br label %30

30:                                               ; preds = %40, %29
  %31 = load i32, ptr %9, align 4, !tbaa !8
  %32 = load ptr, ptr %5, align 8, !tbaa !15
  %33 = getelementptr inbounds nuw %struct.If_Cut_t_, ptr %32, i32 0, i32 7
  %34 = load i64, ptr %33, align 4
  %35 = lshr i64 %34, 24
  %36 = and i64 %35, 255
  %37 = trunc i64 %36 to i32
  %38 = icmp slt i32 %31, %37
  br i1 %38, label %39, label %43

39:                                               ; preds = %30
  br label %40

40:                                               ; preds = %39
  %41 = load i32, ptr %9, align 4, !tbaa !8
  %42 = add nsw i32 %41, 1
  store i32 %42, ptr %9, align 4, !tbaa !8
  br label %30, !llvm.loop !17

43:                                               ; preds = %30
  br label %75

44:                                               ; preds = %19
  store i32 0, ptr %9, align 4, !tbaa !8
  br label %45

45:                                               ; preds = %71, %44
  %46 = load i32, ptr %9, align 4, !tbaa !8
  %47 = load ptr, ptr %5, align 8, !tbaa !15
  %48 = getelementptr inbounds nuw %struct.If_Cut_t_, ptr %47, i32 0, i32 7
  %49 = load i64, ptr %48, align 4
  %50 = lshr i64 %49, 24
  %51 = and i64 %50, 255
  %52 = trunc i64 %51 to i32
  %53 = icmp slt i32 %46, %52
  br i1 %53, label %54, label %74

54:                                               ; preds = %45
  %55 = load i32, ptr %9, align 4, !tbaa !8
  %56 = add nsw i32 %55, 1
  store i32 %56, ptr %10, align 4, !tbaa !8
  br label %57

57:                                               ; preds = %67, %54
  %58 = load i32, ptr %10, align 4, !tbaa !8
  %59 = load ptr, ptr %5, align 8, !tbaa !15
  %60 = getelementptr inbounds nuw %struct.If_Cut_t_, ptr %59, i32 0, i32 7
  %61 = load i64, ptr %60, align 4
  %62 = lshr i64 %61, 24
  %63 = and i64 %62, 255
  %64 = trunc i64 %63 to i32
  %65 = icmp slt i32 %58, %64
  br i1 %65, label %66, label %70

66:                                               ; preds = %57
  br label %67

67:                                               ; preds = %66
  %68 = load i32, ptr %10, align 4, !tbaa !8
  %69 = add nsw i32 %68, 1
  store i32 %69, ptr %10, align 4, !tbaa !8
  br label %57, !llvm.loop !19

70:                                               ; preds = %57
  br label %71

71:                                               ; preds = %70
  %72 = load i32, ptr %9, align 4, !tbaa !8
  %73 = add nsw i32 %72, 1
  store i32 %73, ptr %9, align 4, !tbaa !8
  br label %45, !llvm.loop !20

74:                                               ; preds = %45
  br label %75

75:                                               ; preds = %74, %43
  store i32 0, ptr %8, align 4, !tbaa !8
  br label %76

76:                                               ; preds = %107, %75
  %77 = load i32, ptr %8, align 4, !tbaa !8
  %78 = load ptr, ptr %3, align 8, !tbaa !3
  %79 = getelementptr inbounds nuw %struct.If_Set_t_, ptr %78, i32 0, i32 1
  %80 = load i16, ptr %79, align 2, !tbaa !10
  %81 = sext i16 %80 to i32
  %82 = icmp slt i32 %77, %81
  br i1 %82, label %83, label %110

83:                                               ; preds = %76
  %84 = load ptr, ptr %3, align 8, !tbaa !3
  %85 = getelementptr inbounds nuw %struct.If_Set_t_, ptr %84, i32 0, i32 3
  %86 = load ptr, ptr %85, align 8, !tbaa !14
  %87 = load i32, ptr %8, align 4, !tbaa !8
  %88 = sext i32 %87 to i64
  %89 = getelementptr inbounds ptr, ptr %86, i64 %88
  %90 = load ptr, ptr %89, align 8, !tbaa !15
  store ptr %90, ptr %6, align 8, !tbaa !15
  %91 = load ptr, ptr %5, align 8, !tbaa !15
  %92 = load ptr, ptr %6, align 8, !tbaa !15
  %93 = icmp eq ptr %91, %92
  br i1 %93, label %94, label %95

94:                                               ; preds = %83
  br label %107

95:                                               ; preds = %83
  %96 = load i32, ptr @If_CutVerifyCuts.Count, align 4, !tbaa !8
  %97 = add nsw i32 %96, 1
  store i32 %97, ptr @If_CutVerifyCuts.Count, align 4, !tbaa !8
  %98 = load ptr, ptr %5, align 8, !tbaa !15
  %99 = load ptr, ptr %6, align 8, !tbaa !15
  %100 = call i32 @If_CutVerifyCut(ptr noundef %98, ptr noundef %99)
  store i32 %100, ptr %11, align 4, !tbaa !8
  %101 = load i32, ptr %11, align 4, !tbaa !8
  %102 = icmp ne i32 %101, 0
  br i1 %102, label %103, label %106

103:                                              ; preds = %95
  %104 = load ptr, ptr %5, align 8, !tbaa !15
  call void @If_CutPrint(ptr noundef %104)
  %105 = load ptr, ptr %6, align 8, !tbaa !15
  call void @If_CutPrint(ptr noundef %105)
  br label %106

106:                                              ; preds = %103, %95
  br label %107

107:                                              ; preds = %106, %94
  %108 = load i32, ptr %8, align 4, !tbaa !8
  %109 = add nsw i32 %108, 1
  store i32 %109, ptr %8, align 4, !tbaa !8
  br label %76, !llvm.loop !21

110:                                              ; preds = %76
  br label %111

111:                                              ; preds = %110
  %112 = load i32, ptr %7, align 4, !tbaa !8
  %113 = add nsw i32 %112, 1
  store i32 %113, ptr %7, align 4, !tbaa !8
  br label %12, !llvm.loop !22

114:                                              ; preds = %12
  call void @llvm.lifetime.end.p0(i64 4, ptr %11) #9
  call void @llvm.lifetime.end.p0(i64 4, ptr %10) #9
  call void @llvm.lifetime.end.p0(i64 4, ptr %9) #9
  call void @llvm.lifetime.end.p0(i64 4, ptr %8) #9
  call void @llvm.lifetime.end.p0(i64 4, ptr %7) #9
  call void @llvm.lifetime.end.p0(i64 8, ptr %6) #9
  call void @llvm.lifetime.end.p0(i64 8, ptr %5) #9
  ret i32 1
}