; Function Attrs: nounwind uwtable
define noundef i32 @If_CutVerifyCuts(ptr noundef readonly captures(none) %0, i32 noundef %1) local_unnamed_addr #0 {
  %3 = getelementptr inbounds nuw i8, ptr %0, i64 2
  %4 = load i16, ptr %3, align 2, !tbaa !3
  %5 = icmp sgt i16 %4, 0
  br i1 %5, label %.lr.ph54, label %._crit_edge55

.lr.ph54:                                         ; preds = %2
  %6 = getelementptr inbounds nuw i8, ptr %0, i64 16
  br label %.loopexit45

.loopexit45:                                      ; preds = %.lr.ph54, %._crit_edge
  %7 = phi i16 [ %4, %.lr.ph54 ], [ %73, %._crit_edge ]
  %indvars.iv60 = phi i64 [ 0, %.lr.ph54 ], [ %indvars.iv.next61, %._crit_edge ]
  %8 = load ptr, ptr %6, align 8, !tbaa !11
  %9 = getelementptr inbounds nuw ptr, ptr %8, i64 %indvars.iv60
  %10 = load ptr, ptr %9, align 8, !tbaa !12
  %11 = icmp sgt i16 %7, 0
  br i1 %11, label %.lr.ph51, label %._crit_edge

.lr.ph51:                                         ; preds = %.loopexit45
  %12 = getelementptr inbounds nuw i8, ptr %10, i64 28
  %13 = getelementptr inbounds nuw i8, ptr %10, i64 36
  %14 = getelementptr i8, ptr %10, i64 20
  br label %15

15:                                               ; preds = %.lr.ph51, %If_CutVerifyCut.exit.thread
  %16 = phi i16 [ %7, %.lr.ph51 ], [ %69, %If_CutVerifyCut.exit.thread ]
  %17 = phi i16 [ %7, %.lr.ph51 ], [ %70, %If_CutVerifyCut.exit.thread ]
  %indvars.iv = phi i64 [ 0, %.lr.ph51 ], [ %indvars.iv.next, %If_CutVerifyCut.exit.thread ]
  %18 = load ptr, ptr %6, align 8, !tbaa !11
  %19 = getelementptr inbounds nuw ptr, ptr %18, i64 %indvars.iv
  %20 = load ptr, ptr %19, align 8, !tbaa !12
  %21 = icmp eq ptr %10, %20
  br i1 %21, label %If_CutVerifyCut.exit.thread, label %22

22:                                               ; preds = %15
  %23 = load i32, ptr @If_CutVerifyCuts.Count, align 4, !tbaa !14
  %24 = add nsw i32 %23, 1
  store i32 %24, ptr @If_CutVerifyCuts.Count, align 4, !tbaa !14
  %25 = load i64, ptr %12, align 4
  %26 = trunc i64 %25 to i32
  %27 = lshr i32 %26, 24
  %28 = getelementptr inbounds nuw i8, ptr %20, i64 28
  %29 = load i64, ptr %28, align 4
  %30 = trunc i64 %29 to i32
  %31 = lshr i32 %30, 24
  %32 = getelementptr inbounds nuw i8, ptr %20, i64 36
  %.not.i = icmp ult i32 %30, 16777216
  br i1 %.not.i, label %If_CutVerifyCut.exit, label %.preheader.lr.ph.i

.preheader.lr.ph.i:                               ; preds = %22
  %.not27.i = icmp ult i32 %26, 16777216
  br i1 %.not27.i, label %If_CutVerifyCut.exit.thread, label %.preheader.us.preheader.i

.preheader.us.preheader.i:                        ; preds = %.preheader.lr.ph.i
  %umax.i = tail call i32 @llvm.umax.i32(i32 %27, i32 1)
  %umax32.i = tail call i32 @llvm.umax.i32(i32 %31, i32 1)
  %wide.trip.count33.i = zext nneg i32 %umax32.i to i64
  %wide.trip.count.i = zext nneg i32 %umax.i to i64
  br label %.preheader.us.i

.preheader.us.i:                                  ; preds = %42, %.preheader.us.preheader.i
  %indvars.iv29.i = phi i64 [ 0, %.preheader.us.preheader.i ], [ %indvars.iv.next30.i, %42 ]
  %33 = getelementptr inbounds nuw i32, ptr %32, i64 %indvars.iv29.i
  %34 = load i32, ptr %33, align 4, !tbaa !14
  br label %35

35:                                               ; preds = %39, %.preheader.us.i
  %indvars.iv.i = phi i64 [ 0, %.preheader.us.i ], [ %indvars.iv.next.i, %39 ]
  %36 = getelementptr inbounds nuw i32, ptr %13, i64 %indvars.iv.i
  %37 = load i32, ptr %36, align 4, !tbaa !14
  %38 = icmp eq i32 %34, %37
  br i1 %38, label %._crit_edge.us.split.loop.exit35.i, label %39

39:                                               ; preds = %35
  %indvars.iv.next.i = add nuw nsw i64 %indvars.iv.i, 1
  %exitcond.not.i = icmp eq i64 %indvars.iv.next.i, %wide.trip.count.i
  br i1 %exitcond.not.i, label %._crit_edge.us.i, label %35, !llvm.loop !16

._crit_edge.us.split.loop.exit35.i:               ; preds = %35
  %40 = trunc nuw nsw i64 %indvars.iv.i to i32
  br label %._crit_edge.us.i

._crit_edge.us.i:                                 ; preds = %39, %._crit_edge.us.split.loop.exit35.i
  %.0.lcssa.us.i = phi i32 [ %40, %._crit_edge.us.split.loop.exit35.i ], [ %umax.i, %39 ]
  %41 = icmp eq i32 %.0.lcssa.us.i, %27
  br i1 %41, label %If_CutVerifyCut.exit.thread, label %42

42:                                               ; preds = %._crit_edge.us.i
  %indvars.iv.next30.i = add nuw nsw i64 %indvars.iv29.i, 1
  %exitcond34.not.i = icmp eq i64 %indvars.iv.next30.i, %wide.trip.count33.i
  br i1 %exitcond34.not.i, label %If_CutVerifyCut.exit, label %.preheader.us.i, !llvm.loop !18

If_CutVerifyCut.exit:                             ; preds = %42, %22
  tail call void (i32, ptr, ...) @Abc_Print(i32 noundef 1, ptr noundef nonnull @.str.1)
  %43 = load i64, ptr %12, align 4
  %44 = and i64 %43, 4278190080
  %.not7.i = icmp eq i64 %44, 0
  br i1 %.not7.i, label %If_CutPrint.exit, label %.lr.ph.i

.lr.ph.i:                                         ; preds = %If_CutVerifyCut.exit, %.lr.ph.i
  %indvars.iv.i33 = phi i64 [ %indvars.iv.next.i35, %.lr.ph.i ], [ 0, %If_CutVerifyCut.exit ]
  %.val.i = load i32, ptr %14, align 4, !tbaa !19
  %45 = trunc nuw nsw i64 %indvars.iv.i33 to i32
  %46 = shl nuw i32 1, %45
  %47 = and i32 %46, %.val.i
  %.not.i34 = icmp eq i32 %47, 0
  %48 = select i1 %.not.i34, ptr @.str.4, ptr @.str.3
  %49 = getelementptr inbounds nuw [0 x i32], ptr %13, i64 0, i64 %indvars.iv.i33
  %50 = load i32, ptr %49, align 4, !tbaa !14
  tail call void (i32, ptr, ...) @Abc_Print(i32 noundef 1, ptr noundef nonnull @.str.2, ptr noundef nonnull %48, i32 noundef %50)
  %indvars.iv.next.i35 = add nuw nsw i64 %indvars.iv.i33, 1
  %51 = load i64, ptr %12, align 4
  %52 = lshr i64 %51, 24
  %53 = and i64 %52, 255
  %54 = icmp samesign ult i64 %indvars.iv.next.i35, %53
  br i1 %54, label %.lr.ph.i, label %If_CutPrint.exit, !llvm.loop !22

If_CutPrint.exit:                                 ; preds = %.lr.ph.i, %If_CutVerifyCut.exit
  tail call void (i32, ptr, ...) @Abc_Print(i32 noundef 1, ptr noundef nonnull @.str.5)
  tail call void (i32, ptr, ...) @Abc_Print(i32 noundef 1, ptr noundef nonnull @.str.1)
  %55 = load i64, ptr %28, align 4
  %56 = and i64 %55, 4278190080
  %.not7.i36 = icmp eq i64 %56, 0
  br i1 %.not7.i36, label %If_CutPrint.exit42, label %.lr.ph.i37

.lr.ph.i37:                                       ; preds = %If_CutPrint.exit
  %57 = getelementptr i8, ptr %20, i64 20
  br label %58

58:                                               ; preds = %58, %.lr.ph.i37
  %indvars.iv.i38 = phi i64 [ 0, %.lr.ph.i37 ], [ %indvars.iv.next.i41, %58 ]
  %.val.i39 = load i32, ptr %57, align 4, !tbaa !19
  %59 = trunc nuw nsw i64 %indvars.iv.i38 to i32
  %60 = shl nuw i32 1, %59
  %61 = and i32 %60, %.val.i39
  %.not.i40 = icmp eq i32 %61, 0
  %62 = select i1 %.not.i40, ptr @.str.4, ptr @.str.3
  %63 = getelementptr inbounds nuw [0 x i32], ptr %32, i64 0, i64 %indvars.iv.i38
  %64 = load i32, ptr %63, align 4, !tbaa !14
  tail call void (i32, ptr, ...) @Abc_Print(i32 noundef 1, ptr noundef nonnull @.str.2, ptr noundef nonnull %62, i32 noundef %64)
  %indvars.iv.next.i41 = add nuw nsw i64 %indvars.iv.i38, 1
  %65 = load i64, ptr %28, align 4
  %66 = lshr i64 %65, 24
  %67 = and i64 %66, 255
  %68 = icmp samesign ult i64 %indvars.iv.next.i41, %67
  br i1 %68, label %58, label %If_CutPrint.exit42, !llvm.loop !22

If_CutPrint.exit42:                               ; preds = %58, %If_CutPrint.exit
  tail call void (i32, ptr, ...) @Abc_Print(i32 noundef 1, ptr noundef nonnull @.str.5)
  %.pre = load i16, ptr %3, align 2, !tbaa !3
  br label %If_CutVerifyCut.exit.thread

If_CutVerifyCut.exit.thread:                      ; preds = %._crit_edge.us.i, %.preheader.lr.ph.i, %If_CutPrint.exit42, %15
  %69 = phi i16 [ %16, %.preheader.lr.ph.i ], [ %.pre, %If_CutPrint.exit42 ], [ %16, %15 ], [ %16, %._crit_edge.us.i ]
  %70 = phi i16 [ %17, %.preheader.lr.ph.i ], [ %.pre, %If_CutPrint.exit42 ], [ %17, %15 ], [ %17, %._crit_edge.us.i ]
  %indvars.iv.next = add nuw nsw i64 %indvars.iv, 1
  %71 = sext i16 %70 to i64
  %72 = icmp slt i64 %indvars.iv.next, %71
  br i1 %72, label %15, label %._crit_edge, !llvm.loop !23

._crit_edge:                                      ; preds = %If_CutVerifyCut.exit.thread, %.loopexit45
  %73 = phi i16 [ %7, %.loopexit45 ], [ %69, %If_CutVerifyCut.exit.thread ]
  %indvars.iv.next61 = add nuw nsw i64 %indvars.iv60, 1
  %74 = sext i16 %73 to i64
  %75 = icmp slt i64 %indvars.iv.next61, %74
  br i1 %75, label %.loopexit45, label %._crit_edge55, !llvm.loop !24

._crit_edge55:                                    ; preds = %._crit_edge, %2
  ret i32 1
}